; Function Attrs: nounwind uwtable
define dso_local ptr @sendCommandRaw(ptr noundef %conn, ptr noundef %cmd) local_unnamed_addr #0 {
entry:
  %arrayidx.i = getelementptr inbounds i8, ptr %cmd, i64 -1
  %0 = load i8, ptr %arrayidx.i, align 1
  %conv.i = zext i8 %0 to i32
  %and.i = and i32 %conv.i, 7
  switch i32 %and.i, label %sdslen.exit [
    i32 0, label %sw.bb.i
    i32 1, label %sw.bb3.i
    i32 2, label %sw.bb5.i
    i32 3, label %sw.bb9.i
    i32 4, label %sw.bb13.i
  ]

sw.bb.i:                                          ; preds = %entry
  %shr.i = lshr i32 %conv.i, 3
  %conv2.i = zext nneg i32 %shr.i to i64
  br label %sdslen.exit

sw.bb3.i:                                         ; preds = %entry
  %add.ptr.i = getelementptr inbounds i8, ptr %cmd, i64 -3
  %1 = load i8, ptr %add.ptr.i, align 1
  %conv4.i = zext i8 %1 to i64
  br label %sdslen.exit

sw.bb5.i:                                         ; preds = %entry
  %add.ptr6.i = getelementptr inbounds i8, ptr %cmd, i64 -5
  %2 = load i16, ptr %add.ptr6.i, align 1
  %conv8.i = zext i16 %2 to i64
  br label %sdslen.exit

sw.bb9.i:                                         ; preds = %entry
  %add.ptr10.i = getelementptr inbounds i8, ptr %cmd, i64 -9
  %3 = load i32, ptr %add.ptr10.i, align 1
  %conv12.i = zext i32 %3 to i64
  br label %sdslen.exit

sw.bb13.i:                                        ; preds = %entry
  %add.ptr14.i = getelementptr inbounds i8, ptr %cmd, i64 -17
  %4 = load i64, ptr %add.ptr14.i, align 1
  br label %sdslen.exit

sdslen.exit:                                      ; preds = %entry, %sw.bb.i, %sw.bb3.i, %sw.bb5.i, %sw.bb9.i, %sw.bb13.i
  %retval.0.i = phi i64 [ %4, %sw.bb13.i ], [ %conv12.i, %sw.bb9.i ], [ %conv8.i, %sw.bb5.i ], [ %conv4.i, %sw.bb3.i ], [ %conv2.i, %sw.bb.i ], [ 0, %entry ]
  %5 = load i32, ptr getelementptr inbounds (%struct.redisServer, ptr @server, i64 0, i32 288), align 8
  %mul = mul nsw i32 %5, 1000
  %conv = sext i32 %mul to i64
  %6 = load ptr, ptr %conn, align 8
  %sync_write.i = getelementptr inbounds i8, ptr %6, i64 176
  %7 = load ptr, ptr %sync_write.i, align 8
  %call.i = tail call i64 %7(ptr noundef nonnull %conn, ptr noundef nonnull %cmd, i64 noundef %retval.0.i, i64 noundef %conv) #21
  %cmp = icmp eq i64 %call.i, -1
  br i1 %cmp, label %if.then, label %return

if.then:                                          ; preds = %sdslen.exit
  %call3 = tail call ptr @sdsempty() #21
  %8 = load ptr, ptr %conn, align 8
  %get_last_error.i = getelementptr inbounds i8, ptr %8, i64 168
  %9 = load ptr, ptr %get_last_error.i, align 8
  %call.i3 = tail call ptr %9(ptr noundef nonnull %conn) #21
  %call5 = tail call ptr (ptr, ptr, ...) @sdscatprintf(ptr noundef %call3, ptr noundef nonnull @.str.135, ptr noundef %call.i3) #21
  br label %return

return:                                           ; preds = %sdslen.exit, %if.then
  %retval.0 = phi ptr [ %call5, %if.then ], [ null, %sdslen.exit ]
  ret ptr %retval.0
}